target datalayout = "e-m:e-p270:32:32-p271:32:32-p272:64:64-i64:64-i128:128-f80:128-n8:16:32:64-S128"
target triple = "x86_64-pc-linux-gnu"

%struct.AVPixFmtDescriptor = type { ptr, i8, i8, i8, i64, [4 x %struct.AVComponentDescriptor], ptr }
%struct.AVComponentDescriptor = type { i32, i32, i32, i32, i32 }

; Function Attrs: nounwind uwtable
define i32 @ff_fmt_is_regular_yuv(i32 noundef %0) #0 {
  %2 = alloca i32, align 4
  %3 = alloca i32, align 4
  %4 = alloca ptr, align 8
  %5 = alloca i32, align 4
  store i32 %0, ptr %3, align 4, !tbaa !20
  call void @llvm.lifetime.start.p0(i64 8, ptr %4) #11
  %6 = load i32, ptr %3, align 4, !tbaa !20
  %7 = call ptr @av_pix_fmt_desc_get(i32 noundef %6)
  store ptr %7, ptr %4, align 8, !tbaa !65
  %8 = load ptr, ptr %4, align 8, !tbaa !65
  %9 = icmp ne ptr %8, null
  br i1 %9, label %11, label %10

10:                                               ; preds = %1
  store i32 0, ptr %2, align 4
  store i32 1, ptr %5, align 4
  br label %26

11:                                               ; preds = %1
  %12 = load ptr, ptr %4, align 8, !tbaa !65
  %13 = getelementptr inbounds nuw %struct.AVPixFmtDescriptor, ptr %12, i32 0, i32 1
  %14 = load i8, ptr %13, align 8, !tbaa !67
  %15 = zext i8 %14 to i32
  %16 = icmp slt i32 %15, 3
  br i1 %16, label %17, label %18

17:                                               ; preds = %11
  store i32 0, ptr %2, align 4
  store i32 1, ptr %5, align 4
  br label %26

18:                                               ; preds = %11
  %19 = load ptr, ptr %4, align 8, !tbaa !65
  %20 = getelementptr inbounds nuw %struct.AVPixFmtDescriptor, ptr %19, i32 0, i32 4
  %21 = load i64, ptr %20, align 8, !tbaa !69
  %22 = and i64 %21, 1570
  %23 = icmp ne i64 %22, 0
  %24 = xor i1 %23, true
  %25 = zext i1 %24 to i32
  store i32 %25, ptr %2, align 4
  store i32 1, ptr %5, align 4
  br label %26

26:                                               ; preds = %18, %17, %10
  call void @llvm.lifetime.end.p0(i64 8, ptr %4) #11
  %27 = load i32, ptr %2, align 4
  ret i32 %27
}