; Function Attrs: nounwind uwtable
define range(i32 0, 2) i32 @ff_fmt_is_regular_yuv(i32 noundef %0) local_unnamed_addr #0 {
  %2 = tail call ptr @av_pix_fmt_desc_get(i32 noundef %0) #14
  %.not = icmp eq ptr %2, null
  br i1 %.not, label %12, label %3

3:                                                ; preds = %1
  %4 = getelementptr inbounds nuw i8, ptr %2, i64 8
  %5 = load i8, ptr %4, align 8, !tbaa !55
  %6 = icmp ult i8 %5, 3
  br i1 %6, label %12, label %7

7:                                                ; preds = %3
  %8 = getelementptr inbounds nuw i8, ptr %2, i64 16
  %9 = load i64, ptr %8, align 8, !tbaa !57
  %10 = and i64 %9, 1570
  %.not5 = icmp eq i64 %10, 0
  %11 = zext i1 %.not5 to i32
  br label %12

12:                                               ; preds = %3, %1, %7
  %.0 = phi i32 [ %11, %7 ], [ 0, %1 ], [ 0, %3 ]
  ret i32 %.0
}